; ModuleID = '37/1851.c'
source_filename = "37/1851.c"
target datalayout = "e-m:e-p270:32:32-p271:32:32-p272:64:64-i64:64-f80:128-n8:16:32:64-S128"
target triple = "x86_64-pc-linux-gnu"

@.str = private unnamed_addr constant [3 x i8] c"%d\00", align 1
@.str.1 = private unnamed_addr constant [3 x i8] c"%s\00", align 1
@.str.2 = private unnamed_addr constant [4 x i8] c"%c\0A\00", align 1
@.str.3 = private unnamed_addr constant [4 x i8] c"no\0A\00", align 1

; Function Attrs: noinline nounwind uwtable
define dso_local i32 @main() #0 {
  %1 = alloca i32, align 4
  %2 = alloca i32, align 4
  %3 = alloca i32, align 4
  %4 = alloca i32, align 4
  %5 = alloca [1000 x i8], align 16
  %6 = alloca i32, align 4
  %7 = alloca i32, align 4
  %8 = alloca [1000 x i32], align 16
  store i32 0, i32* %1, align 4
  %9 = call i32 (i8*, ...) @__isoc99_scanf(i8* getelementptr inbounds ([3 x i8], [3 x i8]* @.str, i64 0, i64 0), i32* %2)
  store i32 0, i32* %3, align 4
  br label %10

10:                                               ; preds = %68, %0
  %11 = load i32, i32* %3, align 4
  %12 = load i32, i32* %2, align 4
  %13 = icmp slt i32 %11, %12
  br i1 %13, label %14, label %71

14:                                               ; preds = %10
  store i32 0, i32* %4, align 4
  %15 = getelementptr inbounds [1000 x i8], [1000 x i8]* %5, i64 0, i64 0
  %16 = call i32 (i8*, ...) @__isoc99_scanf(i8* getelementptr inbounds ([3 x i8], [3 x i8]* @.str.1, i64 0, i64 0), i8* %15)
  %17 = getelementptr inbounds [1000 x i8], [1000 x i8]* %5, i64 0, i64 0
  %18 = call i64 @strlen(i8* %17) #4
  %19 = trunc i64 %18 to i32
  store i32 %19, i32* %6, align 4
  %20 = bitcast [1000 x i32]* %8 to i8*
  call void @llvm.memset.p0i8.i64(i8* align 16 %20, i8 0, i64 4000, i1 false)
  store i32 0, i32* %7, align 4
  br label %21

21:                                               ; preds = %34, %14
  %22 = load i32, i32* %7, align 4
  %23 = load i32, i32* %6, align 4
  %24 = icmp slt i32 %22, %23
  br i1 %24, label %25, label %37

25:                                               ; preds = %21
  %26 = load i32, i32* %7, align 4
  %27 = sext i32 %26 to i64
  %28 = getelementptr inbounds [1000 x i8], [1000 x i8]* %5, i64 0, i64 %27
  %29 = load i8, i8* %28, align 1
  %30 = sext i8 %29 to i64
  %31 = getelementptr inbounds [1000 x i32], [1000 x i32]* %8, i64 0, i64 %30
  %32 = load i32, i32* %31, align 4
  %33 = add nsw i32 %32, 1
  store i32 %33, i32* %31, align 4
  br label %34

34:                                               ; preds = %25
  %35 = load i32, i32* %7, align 4
  %36 = add nsw i32 %35, 1
  store i32 %36, i32* %7, align 4
  br label %21

37:                                               ; preds = %21
  store i32 0, i32* %7, align 4
  br label %38

38:                                               ; preds = %59, %37
  %39 = load i32, i32* %7, align 4
  %40 = load i32, i32* %6, align 4
  %41 = icmp slt i32 %39, %40
  br i1 %41, label %42, label %62

42:                                               ; preds = %38
  %43 = load i32, i32* %7, align 4
  %44 = sext i32 %43 to i64
  %45 = getelementptr inbounds [1000 x i8], [1000 x i8]* %5, i64 0, i64 %44
  %46 = load i8, i8* %45, align 1
  %47 = sext i8 %46 to i64
  %48 = getelementptr inbounds [1000 x i32], [1000 x i32]* %8, i64 0, i64 %47
  %49 = load i32, i32* %48, align 4
  %50 = icmp eq i32 %49, 1
  br i1 %50, label %51, label %58

51:                                               ; preds = %42
  %52 = load i32, i32* %7, align 4
  %53 = sext i32 %52 to i64
  %54 = getelementptr inbounds [1000 x i8], [1000 x i8]* %5, i64 0, i64 %53
  %55 = load i8, i8* %54, align 1
  %56 = sext i8 %55 to i32
  %57 = call i32 (i8*, ...) @printf(i8* getelementptr inbounds ([4 x i8], [4 x i8]* @.str.2, i64 0, i64 0), i32 %56)
  store i32 1, i32* %4, align 4
  br label %62

58:                                               ; preds = %42
  br label %59

59:                                               ; preds = %58
  %60 = load i32, i32* %7, align 4
  %61 = add nsw i32 %60, 1
  store i32 %61, i32* %7, align 4
  br label %38

62:                                               ; preds = %51, %38
  %63 = load i32, i32* %4, align 4
  %64 = icmp eq i32 %63, 0
  br i1 %64, label %65, label %67

65:                                               ; preds = %62
  %66 = call i32 (i8*, ...) @printf(i8* getelementptr inbounds ([4 x i8], [4 x i8]* @.str.3, i64 0, i64 0))
  br label %67

67:                                               ; preds = %65, %62
  br label %68

68:                                               ; preds = %67
  %69 = load i32, i32* %3, align 4
  %70 = add nsw i32 %69, 1
  store i32 %70, i32* %3, align 4
  br label %10

71:                                               ; preds = %10
  %72 = load i32, i32* %1, align 4
  ret i32 %72
}

declare dso_local i32 @__isoc99_scanf(i8*, ...) #1

; Function Attrs: nounwind readonly
declare dso_local i64 @strlen(i8*) #2

; Function Attrs: argmemonly nounwind willreturn
declare void @llvm.memset.p0i8.i64(i8* nocapture writeonly, i8, i64, i1 immarg) #3

declare dso_local i32 @printf(i8*, ...) #1


!llvm.module.flags = !{!0}
!llvm.ident = !{!1}

!0 = !{i32 1, !"wchar_size", i32 4}
!1 = !{!"clang version 10.0.0-4ubuntu1 "}
